target datalayout = "e-m:e-p270:32:32-p271:32:32-p272:64:64-i64:64-i128:128-f80:128-n8:16:32:64-S128"
target triple = "x86_64-pc-linux-gnu"

%struct.H5FL_reg_head_t = type { i8, i32, i32, ptr, i64, ptr }
%struct.H5HF_block_iter_t = type { i8, ptr }
%struct.H5HF_block_loc_t = type { i32, i32, i32, ptr, ptr }

@H5_H5HF_block_loc_t_reg_free_list = internal global %struct.H5FL_reg_head_t { i8 0, i32 0, i32 0, ptr @.str.6, i64 32, ptr null }, align 8
@.str = private unnamed_addr constant [102 x i8] c"generated/home/dtcxzyw/WorkSpace/Projects/compilers/llvm-opt-benchmark/bench/hdf5/hdf5/src/H5HFiter.c\00", align 1
@H5E_HEAP_g = external global i64, align 8
@__func__.H5HF__man_iter_reset = private unnamed_addr constant [21 x i8] c"H5HF__man_iter_reset\00", align 1
@H5E_CANTDEC_g = external global i64, align 8
@.str.5 = private unnamed_addr constant [57 x i8] c"can't decrement reference count on shared indirect block\00", align 1

; Function Attrs: nounwind uwtable
define i32 @H5HF__man_iter_reset(ptr noundef %0) #0 {
  %2 = alloca ptr, align 8
  %3 = alloca i32, align 4
  %4 = alloca i8, align 1
  %5 = alloca ptr, align 8
  %6 = alloca ptr, align 8
  store ptr %0, ptr %2, align 8
  store i32 0, ptr %3, align 4
  store i8 0, ptr %4, align 1
  %7 = load ptr, ptr %2, align 8
  %8 = getelementptr inbounds %struct.H5HF_block_iter_t, ptr %7, i32 0, i32 1
  %9 = load ptr, ptr %8, align 8
  %10 = icmp ne ptr %9, null
  br i1 %10, label %11, label %55

11:                                               ; preds = %1
  %12 = load ptr, ptr %2, align 8
  %13 = getelementptr inbounds %struct.H5HF_block_iter_t, ptr %12, i32 0, i32 1
  %14 = load ptr, ptr %13, align 8
  store ptr %14, ptr %5, align 8
  br label %15

15:                                               ; preds = %48, %11
  %16 = load ptr, ptr %5, align 8
  %17 = icmp ne ptr %16, null
  br i1 %17, label %18, label %52

18:                                               ; preds = %15
  %19 = load ptr, ptr %5, align 8
  %20 = getelementptr inbounds %struct.H5HF_block_loc_t, ptr %19, i32 0, i32 4
  %21 = load ptr, ptr %20, align 8
  store ptr %21, ptr %6, align 8
  %22 = load ptr, ptr %5, align 8
  %23 = getelementptr inbounds %struct.H5HF_block_loc_t, ptr %22, i32 0, i32 3
  %24 = load ptr, ptr %23, align 8
  %25 = icmp ne ptr %24, null
  br i1 %25, label %26, label %48

26:                                               ; preds = %18
  %27 = load ptr, ptr %5, align 8
  %28 = getelementptr inbounds %struct.H5HF_block_loc_t, ptr %27, i32 0, i32 3
  %29 = load ptr, ptr %28, align 8
  %30 = call i32 @H5HF__iblock_decr(ptr noundef %29)
  %31 = icmp slt i32 %30, 0
  br i1 %31, label %32, label %47

32:                                               ; preds = %26
  br label %33

33:                                               ; preds = %32
  br label %34

34:                                               ; preds = %33
  br label %35

35:                                               ; preds = %34
  %36 = load i64, ptr @H5E_HEAP_g, align 8
  %37 = load i64, ptr @H5E_CANTDEC_g, align 8
  %38 = call i32 (ptr, ptr, i32, i64, i64, ptr, ...) @H5E_printf_stack(ptr noundef @.str, ptr noundef @__func__.H5HF__man_iter_reset, i32 noundef 371, i64 noundef %36, i64 noundef %37, ptr noundef @.str.5)
  br label %39

39:                                               ; preds = %35
  store i8 1, ptr %4, align 1
  %40 = load i8, ptr %4, align 1
  %41 = trunc i8 %40 to i1
  %42 = zext i1 %41 to i8
  store i8 %42, ptr %4, align 1
  br label %43

43:                                               ; preds = %39
  br label %44

44:                                               ; preds = %43
  store i32 -1, ptr %3, align 4
  br label %58

45:                                               ; No predecessors!
  br label %46

46:                                               ; preds = %45
  br label %47

47:                                               ; preds = %46, %26
  br label %48

48:                                               ; preds = %47, %18
  %49 = load ptr, ptr %5, align 8
  %50 = call ptr @H5FL_reg_free(ptr noundef @H5_H5HF_block_loc_t_reg_free_list, ptr noundef %49)
  store ptr %50, ptr %5, align 8
  %51 = load ptr, ptr %6, align 8
  store ptr %51, ptr %5, align 8
  br label %15

52:                                               ; preds = %15
  %53 = load ptr, ptr %2, align 8
  %54 = getelementptr inbounds %struct.H5HF_block_iter_t, ptr %53, i32 0, i32 1
  store ptr null, ptr %54, align 8
  br label %55

55:                                               ; preds = %52, %1
  %56 = load ptr, ptr %2, align 8
  %57 = getelementptr inbounds %struct.H5HF_block_iter_t, ptr %56, i32 0, i32 0
  store i8 0, ptr %57, align 8
  br label %58

58:                                               ; preds = %55, %44
  %59 = load i32, ptr %3, align 4
  ret i32 %59
}