; Function Attrs: nounwind uwtable
define range(i32 -1, 1) i32 @H5HF__man_iter_reset(ptr nocapture noundef %0) local_unnamed_addr #2 {
  %2 = getelementptr inbounds i8, ptr %0, i64 8
  %3 = load ptr, ptr %2, align 8
  %.not = icmp eq ptr %3, null
  br i1 %.not, label %18, label %.preheader

.preheader:                                       ; preds = %1, %15
  %.01116 = phi ptr [ %5, %15 ], [ %3, %1 ]
  %4 = getelementptr inbounds i8, ptr %.01116, i64 24
  %5 = load ptr, ptr %4, align 8
  %6 = getelementptr inbounds i8, ptr %.01116, i64 16
  %7 = load ptr, ptr %6, align 8
  %.not15 = icmp eq ptr %7, null
  br i1 %.not15, label %15, label %8

8:                                                ; preds = %.preheader
  %9 = tail call i32 @H5HF__iblock_decr(ptr noundef nonnull %7) #8
  %10 = icmp slt i32 %9, 0
  br i1 %10, label %11, label %15

11:                                               ; preds = %8
  %12 = load i64, ptr @H5E_HEAP_g, align 8
  %13 = load i64, ptr @H5E_CANTDEC_g, align 8
  %14 = tail call i32 (ptr, ptr, i32, i64, i64, ptr, ...) @H5E_printf_stack(ptr noundef nonnull @.str, ptr noundef nonnull @__func__.H5HF__man_iter_reset, i32 noundef 371, i64 noundef %12, i64 noundef %13, ptr noundef nonnull @.str.5) #8
  br label %19

15:                                               ; preds = %8, %.preheader
  %16 = tail call ptr @H5FL_reg_free(ptr noundef nonnull @H5_H5HF_block_loc_t_reg_free_list, ptr noundef nonnull %.01116) #8
  %.not14 = icmp eq ptr %5, null
  br i1 %.not14, label %17, label %.preheader

17:                                               ; preds = %15
  store ptr null, ptr %2, align 8
  br label %18

18:                                               ; preds = %17, %1
  store i8 0, ptr %0, align 8
  br label %19

19:                                               ; preds = %18, %11
  %.0 = phi i32 [ -1, %11 ], [ 0, %18 ]
  ret i32 %.0
}